(dp1
Vpynet-rtr2.twb-tech.com
p2
ccopy_reg
_reconstructor
p3
(c__main__
NetworkDevice
p4
c__builtin__
tuple
p5
(S'1882474822'
p6
I1882472748
I01
ttRp7
sVpynet-rtr1.twb-tech.com
p8
g3
(g4
g5
(S'242688334'
p9
I241578144
I00
ttRp10
s.